target datalayout = "e-m:e-p270:32:32-p271:32:32-p272:64:64-i64:64-i128:128-f80:128-n8:16:32:64-S128"
target triple = "x86_64-pc-linux-gnu"

%"class.cv::detail::tracking::online_boosting::ClassifierThreshold" = type { ptr, ptr, ptr, float, i32 }

; Function Attrs: mustprogress nounwind uwtable
define hidden noundef i32 @_ZN2cv6detail8tracking15online_boosting19ClassifierThreshold4evalEf(ptr noundef nonnull align 8 dereferenceable(32) %0, float noundef %1) #5 align 2 {
  %3 = alloca ptr, align 8
  %4 = alloca float, align 4
  store ptr %0, ptr %3, align 8, !tbaa !168
  store float %1, ptr %4, align 4, !tbaa !38
  %5 = load ptr, ptr %3, align 8
  %6 = getelementptr inbounds nuw %"class.cv::detail::tracking::online_boosting::ClassifierThreshold", ptr %5, i32 0, i32 4
  %7 = load i32, ptr %6, align 4, !tbaa !173
  %8 = sitofp i32 %7 to float
  %9 = load float, ptr %4, align 4, !tbaa !38
  %10 = getelementptr inbounds nuw %"class.cv::detail::tracking::online_boosting::ClassifierThreshold", ptr %5, i32 0, i32 3
  %11 = load float, ptr %10, align 8, !tbaa !172
  %12 = fsub float %9, %11
  %13 = fmul float %8, %12
  %14 = fcmp ogt float %13, 0.000000e+00
  %15 = select i1 %14, i32 1, i32 -1
  ret i32 %15
}