; Function Attrs: mustprogress nofree norecurse nosync nounwind willreturn memory(argmem: read) uwtable
define hidden noundef range(i32 -1, 2) i32 @_ZN2cv6detail8tracking15online_boosting19ClassifierThreshold4evalEf(ptr noundef nonnull readonly align 8 captures(none) dereferenceable(32) %0, float noundef %1) local_unnamed_addr #9 align 2 {
  %3 = getelementptr inbounds nuw i8, ptr %0, i64 28
  %4 = load i32, ptr %3, align 4, !tbaa !86
  %5 = sitofp i32 %4 to float
  %6 = getelementptr inbounds nuw i8, ptr %0, i64 24
  %7 = load float, ptr %6, align 8, !tbaa !89
  %8 = fsub float %1, %7
  %9 = fmul float %8, %5
  %10 = fcmp ogt float %9, 0.000000e+00
  %11 = select i1 %10, i32 1, i32 -1
  ret i32 %11
}